target datalayout = "e-m:e-p270:32:32-p271:32:32-p272:64:64-i64:64-i128:128-f80:128-n8:16:32:64-S128"
target triple = "x86_64-pc-linux-gnu"

%"class.Assimp::DeboneProcess" = type { %"class.Assimp::BaseProcess", i32, i32, float, i8, %"class.std::vector" }
%"class.Assimp::BaseProcess" = type { ptr, ptr, ptr }
%"class.std::vector" = type { %"struct.std::_Vector_base" }
%"struct.std::_Vector_base" = type { %"struct.std::_Vector_base<std::vector<std::pair<unsigned int, aiNode *>>, std::allocator<std::vector<std::pair<unsigned int, aiNode *>>>>::_Vector_impl" }
%"struct.std::_Vector_base<std::vector<std::pair<unsigned int, aiNode *>>, std::allocator<std::vector<std::pair<unsigned int, aiNode *>>>>::_Vector_impl" = type { %"struct.std::_Vector_base<std::vector<std::pair<unsigned int, aiNode *>>, std::allocator<std::vector<std::pair<unsigned int, aiNode *>>>>::_Vector_impl_data" }
%"struct.std::_Vector_base<std::vector<std::pair<unsigned int, aiNode *>>, std::allocator<std::vector<std::pair<unsigned int, aiNode *>>>>::_Vector_impl_data" = type { ptr, ptr, ptr }

; Function Attrs: mustprogress nounwind uwtable
define linkonce_odr void @_ZNSt15__new_allocatorISt6vectorISt4pairIjP6aiNodeESaIS4_EEEC2Ev(ptr noundef nonnull align 1 dereferenceable(1) %0) unnamed_addr #0 comdat align 2 {
  %2 = alloca ptr, align 8
  store ptr %0, ptr %2, align 8
  ret void
}

; Function Attrs: mustprogress nounwind uwtable
define linkonce_odr void @_ZNSt12_Vector_baseISt6vectorISt4pairIjP6aiNodeESaIS4_EESaIS6_EE17_Vector_impl_dataC2Ev(ptr noundef nonnull align 8 dereferenceable(24) %0) unnamed_addr #0 comdat align 2 {
  %2 = alloca ptr, align 8
  store ptr %0, ptr %2, align 8
  %3 = load ptr, ptr %2, align 8
  %4 = getelementptr inbounds nuw %"struct.std::_Vector_base<std::vector<std::pair<unsigned int, aiNode *>>, std::allocator<std::vector<std::pair<unsigned int, aiNode *>>>>::_Vector_impl_data", ptr %3, i32 0, i32 0
  store ptr null, ptr %4, align 8
  %5 = getelementptr inbounds nuw %"struct.std::_Vector_base<std::vector<std::pair<unsigned int, aiNode *>>, std::allocator<std::vector<std::pair<unsigned int, aiNode *>>>>::_Vector_impl_data", ptr %3, i32 0, i32 1
  store ptr null, ptr %5, align 8
  %6 = getelementptr inbounds nuw %"struct.std::_Vector_base<std::vector<std::pair<unsigned int, aiNode *>>, std::allocator<std::vector<std::pair<unsigned int, aiNode *>>>>::_Vector_impl_data", ptr %3, i32 0, i32 2
  store ptr null, ptr %6, align 8
  ret void
}

; Function Attrs: mustprogress nounwind uwtable
define linkonce_odr void @_ZNSaISt6vectorISt4pairIjP6aiNodeESaIS3_EEEC2Ev(ptr noundef nonnull align 1 dereferenceable(1) %0) unnamed_addr #0 comdat align 2 {
  %2 = alloca ptr, align 8
  store ptr %0, ptr %2, align 8
  %3 = load ptr, ptr %2, align 8
  call void @_ZNSt15__new_allocatorISt6vectorISt4pairIjP6aiNodeESaIS4_EEEC2Ev(ptr noundef nonnull align 1 dereferenceable(1) %3) #17
  ret void
}

; Function Attrs: mustprogress nounwind uwtable
define linkonce_odr void @_ZNSt12_Vector_baseISt6vectorISt4pairIjP6aiNodeESaIS4_EESaIS6_EE12_Vector_implC2Ev(ptr noundef nonnull align 8 dereferenceable(24) %0) unnamed_addr #0 comdat align 2 {
  %2 = alloca ptr, align 8
  store ptr %0, ptr %2, align 8
  %3 = load ptr, ptr %2, align 8
  call void @_ZNSaISt6vectorISt4pairIjP6aiNodeESaIS3_EEEC2Ev(ptr noundef nonnull align 1 dereferenceable(1) %3) #17
  call void @_ZNSt12_Vector_baseISt6vectorISt4pairIjP6aiNodeESaIS4_EESaIS6_EE17_Vector_impl_dataC2Ev(ptr noundef nonnull align 8 dereferenceable(24) %3) #17
  ret void
}

; Function Attrs: mustprogress nounwind uwtable
define linkonce_odr void @_ZNSt12_Vector_baseISt6vectorISt4pairIjP6aiNodeESaIS4_EESaIS6_EEC2Ev(ptr noundef nonnull align 8 dereferenceable(24) %0) unnamed_addr #0 comdat align 2 {
  %2 = alloca ptr, align 8
  store ptr %0, ptr %2, align 8
  %3 = load ptr, ptr %2, align 8
  %4 = getelementptr inbounds nuw %"struct.std::_Vector_base", ptr %3, i32 0, i32 0
  call void @_ZNSt12_Vector_baseISt6vectorISt4pairIjP6aiNodeESaIS4_EESaIS6_EE12_Vector_implC2Ev(ptr noundef nonnull align 8 dereferenceable(24) %4) #17
  ret void
}

; Function Attrs: mustprogress nounwind uwtable
define linkonce_odr void @_ZNSt6vectorIS_ISt4pairIjP6aiNodeESaIS3_EESaIS5_EEC2Ev(ptr noundef nonnull align 8 dereferenceable(24) %0) unnamed_addr #0 comdat align 2 {
  %2 = alloca ptr, align 8
  store ptr %0, ptr %2, align 8
  %3 = load ptr, ptr %2, align 8
  call void @_ZNSt12_Vector_baseISt6vectorISt4pairIjP6aiNodeESaIS4_EESaIS6_EEC2Ev(ptr noundef nonnull align 8 dereferenceable(24) %3) #17
  ret void
}

; Function Attrs: mustprogress nounwind uwtable
define hidden void @_ZN6Assimp13DeboneProcessC2Ev(ptr noundef nonnull align 8 dereferenceable(64) %0) unnamed_addr #0 align 2 {
  %2 = alloca ptr, align 8
  store ptr %0, ptr %2, align 8
  %3 = load ptr, ptr %2, align 8
  call void @_ZN6Assimp11BaseProcessC2Ev(ptr noundef nonnull align 8 dereferenceable(24) %3) #17
  store ptr getelementptr inbounds inrange(-16, 48) ({ [8 x ptr] }, ptr @_ZTVN6Assimp13DeboneProcessE, i32 0, i32 0, i32 2), ptr %3, align 8
  %4 = getelementptr inbounds nuw %"class.Assimp::DeboneProcess", ptr %3, i32 0, i32 1
  store i32 0, ptr %4, align 8
  %5 = getelementptr inbounds nuw %"class.Assimp::DeboneProcess", ptr %3, i32 0, i32 2
  store i32 0, ptr %5, align 4
  %6 = getelementptr inbounds nuw %"class.Assimp::DeboneProcess", ptr %3, i32 0, i32 3
  store float 1.000000e+00, ptr %6, align 8
  %7 = getelementptr inbounds nuw %"class.Assimp::DeboneProcess", ptr %3, i32 0, i32 4
  store i8 0, ptr %7, align 4
  %8 = getelementptr inbounds nuw %"class.Assimp::DeboneProcess", ptr %3, i32 0, i32 5
  call void @_ZNSt6vectorIS_ISt4pairIjP6aiNodeESaIS3_EESaIS5_EEC2Ev(ptr noundef nonnull align 8 dereferenceable(24) %8) #17
  ret void
}